target datalayout = "e-m:e-p270:32:32-p271:32:32-p272:64:64-i64:64-i128:128-f80:128-n8:16:32:64-S128"
target triple = "x86_64-pc-linux-gnu"

; Function Attrs: nounwind uwtable
define dso_local void @pq_sendtext(ptr noundef %0, ptr noundef %1, i32 noundef %2) #0 {
  %4 = alloca ptr, align 8
  %5 = alloca ptr, align 8
  %6 = alloca i32, align 4
  %7 = alloca ptr, align 8
  store ptr %0, ptr %4, align 8
  store ptr %1, ptr %5, align 8
  store i32 %2, ptr %6, align 4
  call void @llvm.lifetime.start.p0(i64 8, ptr %7) #8
  %8 = load ptr, ptr %5, align 8
  %9 = load i32, ptr %6, align 4
  %10 = call ptr @pg_server_to_client(ptr noundef %8, i32 noundef %9)
  store ptr %10, ptr %7, align 8
  %11 = load ptr, ptr %7, align 8
  %12 = load ptr, ptr %5, align 8
  %13 = icmp ne ptr %11, %12
  br i1 %13, label %14, label %22

14:                                               ; preds = %3
  %15 = load ptr, ptr %7, align 8
  %16 = call i64 @strlen(ptr noundef %15) #9
  %17 = trunc i64 %16 to i32
  store i32 %17, ptr %6, align 4
  %18 = load ptr, ptr %4, align 8
  %19 = load ptr, ptr %7, align 8
  %20 = load i32, ptr %6, align 4
  call void @appendBinaryStringInfo(ptr noundef %18, ptr noundef %19, i32 noundef %20)
  %21 = load ptr, ptr %7, align 8
  call void @pfree(ptr noundef %21)
  br label %26

22:                                               ; preds = %3
  %23 = load ptr, ptr %4, align 8
  %24 = load ptr, ptr %5, align 8
  %25 = load i32, ptr %6, align 4
  call void @appendBinaryStringInfo(ptr noundef %23, ptr noundef %24, i32 noundef %25)
  br label %26

26:                                               ; preds = %22, %14
  call void @llvm.lifetime.end.p0(i64 8, ptr %7) #8
  ret void
}