; Function Attrs: nounwind uwtable
define dso_local void @pq_sendtext(ptr noundef %0, ptr noundef %1, i32 noundef %2) local_unnamed_addr #0 {
  %4 = tail call ptr @pg_server_to_client(ptr noundef %1, i32 noundef %2) #9
  %.not = icmp eq ptr %4, %1
  br i1 %.not, label %8, label %5

5:                                                ; preds = %3
  %6 = tail call i64 @strlen(ptr noundef nonnull dereferenceable(1) %4) #10
  %7 = trunc i64 %6 to i32
  tail call void @appendBinaryStringInfo(ptr noundef %0, ptr noundef nonnull %4, i32 noundef %7) #9
  tail call void @pfree(ptr noundef nonnull %4) #9
  br label %9

8:                                                ; preds = %3
  tail call void @appendBinaryStringInfo(ptr noundef %0, ptr noundef %1, i32 noundef %2) #9
  br label %9

9:                                                ; preds = %8, %5
  ret void
}